; Function Attrs: mustprogress uwtable
define internal void @"_ZN9QtPrivate18QFunctorSlotObjectIZN11CMainWindow16updateWindowMenuEvE3$_0Li0ENS_4ListIJEEEvE4implEiPNS_15QSlotObjectBaseEP7QObjectPPvPb"(i32 noundef %0, ptr noundef %1, ptr readnone captures(none) %2, ptr readnone captures(none) %3, ptr readnone captures(none) %4) #0 align 2 {
  switch i32 %0, label %"_ZN9QtPrivate7FunctorIZN11CMainWindow16updateWindowMenuEvE3$_0Li0EE4callINS_4ListIJEEEvEEvRS2_PvPS8_.exit" [
    i32 0, label %6
    i32 1, label %9
  ]

6:                                                ; preds = %5
  %7 = icmp eq ptr %1, null
  br i1 %7, label %"_ZN9QtPrivate7FunctorIZN11CMainWindow16updateWindowMenuEvE3$_0Li0EE4callINS_4ListIJEEEvEEvRS2_PvPS8_.exit", label %8

8:                                                ; preds = %6
  tail call void @_ZdlPvm(ptr noundef nonnull %1, i64 noundef 32) #18
  br label %"_ZN9QtPrivate7FunctorIZN11CMainWindow16updateWindowMenuEvE3$_0Li0EE4callINS_4ListIJEEEvEEvRS2_PvPS8_.exit"

9:                                                ; preds = %5
  %10 = getelementptr i8, ptr %1, i64 24
  %.val4 = load ptr, ptr %10, align 8, !tbaa !247
  %.not.i.i.i.i = icmp eq ptr %.val4, null
  br i1 %.not.i.i.i.i, label %"_ZN9QtPrivate7FunctorIZN11CMainWindow16updateWindowMenuEvE3$_0Li0EE4callINS_4ListIJEEEvEEvRS2_PvPS8_.exit", label %11

11:                                               ; preds = %9
  %12 = getelementptr inbounds nuw i8, ptr %1, i64 16
  %.val = load ptr, ptr %12, align 8, !tbaa !249
  %13 = getelementptr inbounds nuw i8, ptr %.val, i64 40
  %14 = load ptr, ptr %13, align 8, !tbaa !48
  %15 = tail call noundef ptr @_ZNK11QMetaObject4castEPK7QObject(ptr noundef nonnull align 8 dereferenceable(56) @_ZN13QMdiSubWindow16staticMetaObjectE, ptr noundef nonnull %.val4)
  tail call void @_ZN8QMdiArea18setActiveSubWindowEP13QMdiSubWindow(ptr noundef nonnull align 8 dereferenceable(40) %14, ptr noundef %15)
  br label %"_ZN9QtPrivate7FunctorIZN11CMainWindow16updateWindowMenuEvE3$_0Li0EE4callINS_4ListIJEEEvEEvRS2_PvPS8_.exit"

"_ZN9QtPrivate7FunctorIZN11CMainWindow16updateWindowMenuEvE3$_0Li0EE4callINS_4ListIJEEEvEEvRS2_PvPS8_.exit": ; preds = %11, %9, %6, %8, %5
  ret void
}